target datalayout = "e-m:e-p270:32:32-p271:32:32-p272:64:64-i64:64-i128:128-f80:128-n8:16:32:64-S128"
target triple = "x86_64-pc-linux-gnu"

%struct.archive_write = type { %struct.archive, i32, i64, i64, ptr, i64, ptr, ptr, ptr, ptr, ptr, i32, i32, ptr, ptr, ptr, ptr, ptr, ptr, ptr, ptr, ptr, ptr, ptr, ptr, ptr, ptr }
%struct.archive = type { i32, i32, ptr, i32, ptr, i32, i32, ptr, %struct.archive_string, ptr, i32, i32, ptr, ptr, i64, i64, i64, i8, i64 }
%struct.archive_string = type { ptr, i64, i64 }
%struct.iso9660 = type { i64, i32, ptr, ptr, %struct.archive_string, i64, i32, %struct.archive_string, %struct.archive_string, ptr, ptr, %struct.anon, %struct.anon.0, %struct.archive_rb_tree, %struct.vdd, %struct.vdd, i32, i32, i32, %struct.archive_string, %struct.archive_string, %struct.archive_string, %struct.archive_string, %struct.archive_string, %struct.archive_string, %struct.archive_string, i32, %struct.anon.1, ptr, i32, [65536 x i8], i64, i32, i64, i64, i64, %struct.anon.2, %struct.iso_option }
%struct.anon = type { ptr, ptr }
%struct.anon.0 = type { ptr, ptr }
%struct.archive_rb_tree = type { ptr, ptr }
%struct.vdd = type { ptr, i32, ptr, i32, i32, i32, i32, i32, i32 }
%struct.anon.1 = type { i8, [64 x i8], i32, ptr, i64, i32, i32, i64, i64, %struct.z_stream_s, i32, i64, i32 }
%struct.z_stream_s = type { ptr, i32, i64, ptr, i32, i64, ptr, ptr, ptr, ptr, ptr, i32, i64, i64 }
%struct.anon.2 = type { %struct.archive_string, ptr, %struct.archive_string, ptr, i8, %struct.archive_string, i8, i8, i16, i16 }
%struct.iso_option = type { i32 }
%struct.isofile = type { ptr, ptr, ptr, ptr, ptr, %struct.archive_string, %struct.archive_string, %struct.archive_string, %struct.archive_string, i32, %struct.content, ptr, i32, i32, %struct.anon.7 }
%struct.content = type { i64, i64, i32, i32, ptr }
%struct.anon.7 = type { i8, i8, i32 }

@zisofs_magic = internal constant [8 x i8] c"7\E4S\96\C9\DB\D6\07", align 1

; Function Attrs: inlinehint nounwind uwtable
define internal i32 @archive_le32dec(ptr noundef %0) #10 {
  %2 = alloca ptr, align 8
  %3 = alloca ptr, align 8
  %4 = alloca i32, align 4
  %5 = alloca i32, align 4
  %6 = alloca i32, align 4
  %7 = alloca i32, align 4
  store ptr %0, ptr %2, align 8, !tbaa !153
  call void @llvm.lifetime.start.p0(i64 8, ptr %3) #13
  %8 = load ptr, ptr %2, align 8, !tbaa !153
  store ptr %8, ptr %3, align 8, !tbaa !133
  call void @llvm.lifetime.start.p0(i64 4, ptr %4) #13
  %9 = load ptr, ptr %3, align 8, !tbaa !133
  %10 = getelementptr inbounds i8, ptr %9, i64 3
  %11 = load i8, ptr %10, align 1, !tbaa !117
  %12 = zext i8 %11 to i32
  store i32 %12, ptr %4, align 4, !tbaa !11
  call void @llvm.lifetime.start.p0(i64 4, ptr %5) #13
  %13 = load ptr, ptr %3, align 8, !tbaa !133
  %14 = getelementptr inbounds i8, ptr %13, i64 2
  %15 = load i8, ptr %14, align 1, !tbaa !117
  %16 = zext i8 %15 to i32
  store i32 %16, ptr %5, align 4, !tbaa !11
  call void @llvm.lifetime.start.p0(i64 4, ptr %6) #13
  %17 = load ptr, ptr %3, align 8, !tbaa !133
  %18 = getelementptr inbounds i8, ptr %17, i64 1
  %19 = load i8, ptr %18, align 1, !tbaa !117
  %20 = zext i8 %19 to i32
  store i32 %20, ptr %6, align 4, !tbaa !11
  call void @llvm.lifetime.start.p0(i64 4, ptr %7) #13
  %21 = load ptr, ptr %3, align 8, !tbaa !133
  %22 = getelementptr inbounds i8, ptr %21, i64 0
  %23 = load i8, ptr %22, align 1, !tbaa !117
  %24 = zext i8 %23 to i32
  store i32 %24, ptr %7, align 4, !tbaa !11
  %25 = load i32, ptr %4, align 4, !tbaa !11
  %26 = shl i32 %25, 24
  %27 = load i32, ptr %5, align 4, !tbaa !11
  %28 = shl i32 %27, 16
  %29 = or i32 %26, %28
  %30 = load i32, ptr %6, align 4, !tbaa !11
  %31 = shl i32 %30, 8
  %32 = or i32 %29, %31
  %33 = load i32, ptr %7, align 4, !tbaa !11
  %34 = or i32 %32, %33
  call void @llvm.lifetime.end.p0(i64 4, ptr %7) #13
  call void @llvm.lifetime.end.p0(i64 4, ptr %6) #13
  call void @llvm.lifetime.end.p0(i64 4, ptr %5) #13
  call void @llvm.lifetime.end.p0(i64 4, ptr %4) #13
  call void @llvm.lifetime.end.p0(i64 8, ptr %3) #13
  ret i32 %34
}

; Function Attrs: nounwind uwtable
define internal void @zisofs_detect_magic(ptr noundef %0, ptr noundef %1, i64 noundef %2) #0 {
  %4 = alloca ptr, align 8
  %5 = alloca ptr, align 8
  %6 = alloca i64, align 8
  %7 = alloca ptr, align 8
  %8 = alloca ptr, align 8
  %9 = alloca ptr, align 8
  %10 = alloca ptr, align 8
  %11 = alloca ptr, align 8
  %12 = alloca i32, align 4
  %13 = alloca i8, align 1
  %14 = alloca i8, align 1
  %15 = alloca i64, align 8
  %16 = alloca i64, align 8
  %17 = alloca i32, align 4
  %18 = alloca i32, align 4
  %19 = alloca i32, align 4
  %20 = alloca i64, align 8
  %21 = alloca i64, align 8
  %22 = alloca i32, align 4
  store ptr %0, ptr %4, align 8, !tbaa !9
  store ptr %1, ptr %5, align 8, !tbaa !153
  store i64 %2, ptr %6, align 8, !tbaa !154
  call void @llvm.lifetime.start.p0(i64 8, ptr %7) #13
  %23 = load ptr, ptr %4, align 8, !tbaa !9
  %24 = getelementptr inbounds nuw %struct.archive_write, ptr %23, i32 0, i32 15
  %25 = load ptr, ptr %24, align 8, !tbaa !120
  store ptr %25, ptr %7, align 8, !tbaa !22
  call void @llvm.lifetime.start.p0(i64 8, ptr %8) #13
  %26 = load ptr, ptr %7, align 8, !tbaa !22
  %27 = getelementptr inbounds nuw %struct.iso9660, ptr %26, i32 0, i32 2
  %28 = load ptr, ptr %27, align 8, !tbaa !43
  store ptr %28, ptr %8, align 8, !tbaa !134
  call void @llvm.lifetime.start.p0(i64 8, ptr %9) #13
  call void @llvm.lifetime.start.p0(i64 8, ptr %10) #13
  call void @llvm.lifetime.start.p0(i64 8, ptr %11) #13
  call void @llvm.lifetime.start.p0(i64 4, ptr %12) #13
  call void @llvm.lifetime.start.p0(i64 1, ptr %13) #13
  call void @llvm.lifetime.start.p0(i64 1, ptr %14) #13
  call void @llvm.lifetime.start.p0(i64 8, ptr %15) #13
  call void @llvm.lifetime.start.p0(i64 8, ptr %16) #13
  call void @llvm.lifetime.start.p0(i64 4, ptr %17) #13
  call void @llvm.lifetime.start.p0(i64 4, ptr %18) #13
  call void @llvm.lifetime.start.p0(i64 4, ptr %19) #13
  call void @llvm.lifetime.start.p0(i64 8, ptr %20) #13
  %29 = load ptr, ptr %8, align 8, !tbaa !134
  %30 = getelementptr inbounds nuw %struct.isofile, ptr %29, i32 0, i32 4
  %31 = load ptr, ptr %30, align 8, !tbaa !135
  %32 = call i64 @archive_entry_size(ptr noundef %31)
  store i64 %32, ptr %20, align 8, !tbaa !154
  %33 = load i64, ptr %20, align 8, !tbaa !154
  %34 = icmp sgt i64 64, %33
  br i1 %34, label %35, label %38

35:                                               ; preds = %3
  %36 = load i64, ptr %20, align 8, !tbaa !154
  %37 = trunc i64 %36 to i32
  store i32 %37, ptr %19, align 4, !tbaa !11
  br label %39

38:                                               ; preds = %3
  store i32 64, ptr %19, align 4, !tbaa !11
  br label %39

39:                                               ; preds = %38, %35
  %40 = load ptr, ptr %7, align 8, !tbaa !22
  %41 = getelementptr inbounds nuw %struct.iso9660, ptr %40, i32 0, i32 27
  %42 = getelementptr inbounds nuw %struct.anon.1, ptr %41, i32 0, i32 2
  %43 = load i32, ptr %42, align 4, !tbaa !222
  %44 = icmp eq i32 %43, 0
  br i1 %44, label %45, label %52

45:                                               ; preds = %39
  %46 = load i64, ptr %6, align 8, !tbaa !154
  %47 = load i32, ptr %19, align 4, !tbaa !11
  %48 = sext i32 %47 to i64
  %49 = icmp uge i64 %46, %48
  br i1 %49, label %50, label %52

50:                                               ; preds = %45
  %51 = load ptr, ptr %5, align 8, !tbaa !153
  store ptr %51, ptr %11, align 8, !tbaa !133
  br label %107

52:                                               ; preds = %45, %39
  %53 = load ptr, ptr %7, align 8, !tbaa !22
  %54 = getelementptr inbounds nuw %struct.iso9660, ptr %53, i32 0, i32 27
  %55 = getelementptr inbounds nuw %struct.anon.1, ptr %54, i32 0, i32 2
  %56 = load i32, ptr %55, align 4, !tbaa !222
  %57 = load i32, ptr %19, align 4, !tbaa !11
  %58 = icmp slt i32 %56, %57
  br i1 %58, label %59, label %102

59:                                               ; preds = %52
  call void @llvm.lifetime.start.p0(i64 8, ptr %21) #13
  %60 = load ptr, ptr %7, align 8, !tbaa !22
  %61 = getelementptr inbounds nuw %struct.iso9660, ptr %60, i32 0, i32 27
  %62 = getelementptr inbounds nuw %struct.anon.1, ptr %61, i32 0, i32 2
  %63 = load i32, ptr %62, align 4, !tbaa !222
  %64 = sext i32 %63 to i64
  %65 = sub i64 64, %64
  store i64 %65, ptr %21, align 8, !tbaa !154
  %66 = load i64, ptr %21, align 8, !tbaa !154
  %67 = load i64, ptr %6, align 8, !tbaa !154
  %68 = icmp ugt i64 %66, %67
  br i1 %68, label %69, label %71

69:                                               ; preds = %59
  %70 = load i64, ptr %6, align 8, !tbaa !154
  store i64 %70, ptr %21, align 8, !tbaa !154
  br label %71

71:                                               ; preds = %69, %59
  %72 = load ptr, ptr %7, align 8, !tbaa !22
  %73 = getelementptr inbounds nuw %struct.iso9660, ptr %72, i32 0, i32 27
  %74 = getelementptr inbounds nuw %struct.anon.1, ptr %73, i32 0, i32 1
  %75 = getelementptr inbounds [64 x i8], ptr %74, i64 0, i64 0
  %76 = load ptr, ptr %7, align 8, !tbaa !22
  %77 = getelementptr inbounds nuw %struct.iso9660, ptr %76, i32 0, i32 27
  %78 = getelementptr inbounds nuw %struct.anon.1, ptr %77, i32 0, i32 2
  %79 = load i32, ptr %78, align 4, !tbaa !222
  %80 = sext i32 %79 to i64
  %81 = getelementptr inbounds i8, ptr %75, i64 %80
  %82 = load ptr, ptr %5, align 8, !tbaa !153
  %83 = load i64, ptr %21, align 8, !tbaa !154
  call void @llvm.memcpy.p0.p0.i64(ptr align 1 %81, ptr align 1 %82, i64 %83, i1 false)
  %84 = load i64, ptr %21, align 8, !tbaa !154
  %85 = trunc i64 %84 to i32
  %86 = load ptr, ptr %7, align 8, !tbaa !22
  %87 = getelementptr inbounds nuw %struct.iso9660, ptr %86, i32 0, i32 27
  %88 = getelementptr inbounds nuw %struct.anon.1, ptr %87, i32 0, i32 2
  %89 = load i32, ptr %88, align 4, !tbaa !222
  %90 = add nsw i32 %89, %85
  store i32 %90, ptr %88, align 4, !tbaa !222
  %91 = load ptr, ptr %7, align 8, !tbaa !22
  %92 = getelementptr inbounds nuw %struct.iso9660, ptr %91, i32 0, i32 27
  %93 = getelementptr inbounds nuw %struct.anon.1, ptr %92, i32 0, i32 2
  %94 = load i32, ptr %93, align 4, !tbaa !222
  %95 = load i32, ptr %19, align 4, !tbaa !11
  %96 = icmp slt i32 %94, %95
  br i1 %96, label %97, label %98

97:                                               ; preds = %71
  store i32 1, ptr %22, align 4
  br label %99

98:                                               ; preds = %71
  store i32 0, ptr %22, align 4
  br label %99

99:                                               ; preds = %98, %97
  call void @llvm.lifetime.end.p0(i64 8, ptr %21) #13
  %100 = load i32, ptr %22, align 4
  switch i32 %100, label %231 [
    i32 0, label %101
  ]

101:                                              ; preds = %99
  br label %102

102:                                              ; preds = %101, %52
  %103 = load ptr, ptr %7, align 8, !tbaa !22
  %104 = getelementptr inbounds nuw %struct.iso9660, ptr %103, i32 0, i32 27
  %105 = getelementptr inbounds nuw %struct.anon.1, ptr %104, i32 0, i32 1
  %106 = getelementptr inbounds [64 x i8], ptr %105, i64 0, i64 0
  store ptr %106, ptr %11, align 8, !tbaa !133
  br label %107

107:                                              ; preds = %102, %50
  %108 = load ptr, ptr %7, align 8, !tbaa !22
  %109 = getelementptr inbounds nuw %struct.iso9660, ptr %108, i32 0, i32 27
  %110 = load i8, ptr %109, align 8
  %111 = and i8 %110, -2
  %112 = or i8 %111, 0
  store i8 %112, ptr %109, align 8
  %113 = load ptr, ptr %11, align 8, !tbaa !133
  store ptr %113, ptr %9, align 8, !tbaa !133
  %114 = load ptr, ptr %9, align 8, !tbaa !133
  %115 = call i32 @memcmp(ptr noundef %114, ptr noundef @zisofs_magic, i64 noundef 8) #15
  %116 = icmp ne i32 %115, 0
  br i1 %116, label %117, label %118

117:                                              ; preds = %107
  store i32 1, ptr %22, align 4
  br label %231

118:                                              ; preds = %107
  %119 = load ptr, ptr %9, align 8, !tbaa !133
  %120 = getelementptr inbounds nuw i8, ptr %119, i64 8
  store ptr %120, ptr %9, align 8, !tbaa !133
  %121 = load ptr, ptr %9, align 8, !tbaa !133
  %122 = call i32 @archive_le32dec(ptr noundef %121)
  store i32 %122, ptr %12, align 4, !tbaa !11
  %123 = load ptr, ptr %9, align 8, !tbaa !133
  %124 = getelementptr inbounds i8, ptr %123, i64 4
  %125 = load i8, ptr %124, align 1, !tbaa !117
  store i8 %125, ptr %13, align 1, !tbaa !117
  %126 = load ptr, ptr %9, align 8, !tbaa !133
  %127 = getelementptr inbounds i8, ptr %126, i64 5
  %128 = load i8, ptr %127, align 1, !tbaa !117
  store i8 %128, ptr %14, align 1, !tbaa !117
  %129 = load i32, ptr %12, align 4, !tbaa !11
  %130 = icmp ult i32 %129, 24
  br i1 %130, label %143, label %131

131:                                              ; preds = %118
  %132 = load i8, ptr %13, align 1, !tbaa !117
  %133 = zext i8 %132 to i32
  %134 = icmp ne i32 %133, 4
  br i1 %134, label %143, label %135

135:                                              ; preds = %131
  %136 = load i8, ptr %14, align 1, !tbaa !117
  %137 = zext i8 %136 to i32
  %138 = icmp sgt i32 %137, 30
  br i1 %138, label %143, label %139

139:                                              ; preds = %135
  %140 = load i8, ptr %14, align 1, !tbaa !117
  %141 = zext i8 %140 to i32
  %142 = icmp slt i32 %141, 7
  br i1 %142, label %143, label %144

143:                                              ; preds = %139, %135, %131, %118
  store i32 1, ptr %22, align 4
  br label %231

144:                                              ; preds = %139
  %145 = load i32, ptr %12, align 4, !tbaa !11
  %146 = zext i32 %145 to i64
  %147 = load i8, ptr %14, align 1, !tbaa !117
  %148 = zext i8 %147 to i32
  %149 = zext i32 %148 to i64
  %150 = shl i64 1, %149
  %151 = add nsw i64 %146, %150
  %152 = sub nsw i64 %151, 1
  %153 = load i8, ptr %14, align 1, !tbaa !117
  %154 = zext i8 %153 to i32
  %155 = zext i32 %154 to i64
  %156 = ashr i64 %152, %155
  store i64 %156, ptr %15, align 8, !tbaa !154
  %157 = load i64, ptr %15, align 8, !tbaa !154
  %158 = add i64 %157, 1
  %159 = mul i64 %158, 4
  %160 = add i64 %159, 16
  store i64 %160, ptr %16, align 8, !tbaa !154
  %161 = load i64, ptr %20, align 8, !tbaa !154
  %162 = load i64, ptr %16, align 8, !tbaa !154
  %163 = icmp slt i64 %161, %162
  br i1 %163, label %164, label %165

164:                                              ; preds = %144
  store i32 1, ptr %22, align 4
  br label %231

165:                                              ; preds = %144
  %166 = load ptr, ptr %11, align 8, !tbaa !133
  %167 = getelementptr inbounds i8, ptr %166, i64 16
  store ptr %167, ptr %9, align 8, !tbaa !133
  %168 = load ptr, ptr %11, align 8, !tbaa !133
  %169 = load i32, ptr %19, align 4, !tbaa !11
  %170 = sext i32 %169 to i64
  %171 = getelementptr inbounds i8, ptr %168, i64 %170
  store ptr %171, ptr %10, align 8, !tbaa !133
  br label %172

172:                                              ; preds = %204, %165
  %173 = load i64, ptr %15, align 8, !tbaa !154
  %174 = icmp ne i64 %173, 0
  br i1 %174, label %175, label %180

175:                                              ; preds = %172
  %176 = load ptr, ptr %9, align 8, !tbaa !133
  %177 = getelementptr inbounds i8, ptr %176, i64 8
  %178 = load ptr, ptr %10, align 8, !tbaa !133
  %179 = icmp ule ptr %177, %178
  br label %180

180:                                              ; preds = %175, %172
  %181 = phi i1 [ false, %172 ], [ %179, %175 ]
  br i1 %181, label %182, label %213

182:                                              ; preds = %180
  %183 = load ptr, ptr %9, align 8, !tbaa !133
  %184 = call i32 @archive_le32dec(ptr noundef %183)
  store i32 %184, ptr %17, align 4, !tbaa !11
  %185 = load i32, ptr %17, align 4, !tbaa !11
  %186 = zext i32 %185 to i64
  %187 = load i64, ptr %16, align 8, !tbaa !154
  %188 = icmp ne i64 %186, %187
  br i1 %188, label %189, label %190

189:                                              ; preds = %182
  store i32 1, ptr %22, align 4
  br label %231

190:                                              ; preds = %182
  %191 = load ptr, ptr %9, align 8, !tbaa !133
  %192 = getelementptr inbounds i8, ptr %191, i64 4
  store ptr %192, ptr %9, align 8, !tbaa !133
  %193 = load ptr, ptr %9, align 8, !tbaa !133
  %194 = call i32 @archive_le32dec(ptr noundef %193)
  store i32 %194, ptr %18, align 4, !tbaa !11
  %195 = load i32, ptr %18, align 4, !tbaa !11
  %196 = load i32, ptr %17, align 4, !tbaa !11
  %197 = icmp ult i32 %195, %196
  br i1 %197, label %203, label %198

198:                                              ; preds = %190
  %199 = load i32, ptr %18, align 4, !tbaa !11
  %200 = zext i32 %199 to i64
  %201 = load i64, ptr %20, align 8, !tbaa !154
  %202 = icmp sgt i64 %200, %201
  br i1 %202, label %203, label %204

203:                                              ; preds = %198, %190
  store i32 1, ptr %22, align 4
  br label %231

204:                                              ; preds = %198
  %205 = load i32, ptr %18, align 4, !tbaa !11
  %206 = load i32, ptr %17, align 4, !tbaa !11
  %207 = sub i32 %205, %206
  %208 = zext i32 %207 to i64
  %209 = load i64, ptr %16, align 8, !tbaa !154
  %210 = add i64 %209, %208
  store i64 %210, ptr %16, align 8, !tbaa !154
  %211 = load i64, ptr %15, align 8, !tbaa !154
  %212 = add i64 %211, -1
  store i64 %212, ptr %15, align 8, !tbaa !154
  br label %172, !llvm.loop !249

213:                                              ; preds = %180
  %214 = load i32, ptr %12, align 4, !tbaa !11
  %215 = load ptr, ptr %8, align 8, !tbaa !134
  %216 = getelementptr inbounds nuw %struct.isofile, ptr %215, i32 0, i32 14
  %217 = getelementptr inbounds nuw %struct.anon.7, ptr %216, i32 0, i32 2
  store i32 %214, ptr %217, align 4, !tbaa !225
  %218 = load i8, ptr %13, align 1, !tbaa !117
  %219 = load ptr, ptr %8, align 8, !tbaa !134
  %220 = getelementptr inbounds nuw %struct.isofile, ptr %219, i32 0, i32 14
  %221 = getelementptr inbounds nuw %struct.anon.7, ptr %220, i32 0, i32 0
  store i8 %218, ptr %221, align 8, !tbaa !223
  %222 = load i8, ptr %14, align 1, !tbaa !117
  %223 = load ptr, ptr %8, align 8, !tbaa !134
  %224 = getelementptr inbounds nuw %struct.isofile, ptr %223, i32 0, i32 14
  %225 = getelementptr inbounds nuw %struct.anon.7, ptr %224, i32 0, i32 1
  store i8 %222, ptr %225, align 1, !tbaa !224
  %226 = load ptr, ptr %7, align 8, !tbaa !22
  %227 = getelementptr inbounds nuw %struct.iso9660, ptr %226, i32 0, i32 27
  %228 = load i8, ptr %227, align 8
  %229 = and i8 %228, -3
  %230 = or i8 %229, 0
  store i8 %230, ptr %227, align 8
  store i32 0, ptr %22, align 4
  br label %231

231:                                              ; preds = %213, %203, %189, %164, %143, %117, %99
  call void @llvm.lifetime.end.p0(i64 8, ptr %20) #13
  call void @llvm.lifetime.end.p0(i64 4, ptr %19) #13
  call void @llvm.lifetime.end.p0(i64 4, ptr %18) #13
  call void @llvm.lifetime.end.p0(i64 4, ptr %17) #13
  call void @llvm.lifetime.end.p0(i64 8, ptr %16) #13
  call void @llvm.lifetime.end.p0(i64 8, ptr %15) #13
  call void @llvm.lifetime.end.p0(i64 1, ptr %14) #13
  call void @llvm.lifetime.end.p0(i64 1, ptr %13) #13
  call void @llvm.lifetime.end.p0(i64 4, ptr %12) #13
  call void @llvm.lifetime.end.p0(i64 8, ptr %11) #13
  call void @llvm.lifetime.end.p0(i64 8, ptr %10) #13
  call void @llvm.lifetime.end.p0(i64 8, ptr %9) #13
  call void @llvm.lifetime.end.p0(i64 8, ptr %8) #13
  call void @llvm.lifetime.end.p0(i64 8, ptr %7) #13
  %232 = load i32, ptr %22, align 4
  switch i32 %232, label %234 [
    i32 0, label %233
    i32 1, label %233
  ]

233:                                              ; preds = %231, %231
  ret void

234:                                              ; preds = %231
  unreachable
}