; Function Attrs: nounwind uwtable
define internal fastcc void @zisofs_detect_magic(ptr %.248.val, ptr noundef readonly %0, i64 noundef %1) unnamed_addr #0 {
  %3 = getelementptr inbounds nuw i8, ptr %.248.val, i64 16
  %4 = load ptr, ptr %3, align 8, !tbaa !36
  %5 = getelementptr inbounds nuw i8, ptr %4, i64 32
  %6 = load ptr, ptr %5, align 8, !tbaa !78
  %7 = tail call i64 @archive_entry_size(ptr noundef %6) #23
  %.0771 = tail call i64 @llvm.smin.i64(i64 %7, i64 64)
  %.077 = trunc i64 %.0771 to i32
  %8 = getelementptr inbounds nuw i8, ptr %.248.val, i64 472
  %9 = getelementptr inbounds nuw i8, ptr %.248.val, i64 540
  %10 = load i32, ptr %9, align 4, !tbaa !244
  %11 = icmp ne i32 %10, 0
  %sext = shl i64 %.0771, 32
  %12 = ashr exact i64 %sext, 32
  %.not = icmp ult i64 %1, %12
  %or.cond93 = select i1 %11, i1 true, i1 %.not
  br i1 %or.cond93, label %13, label %25

13:                                               ; preds = %2
  %14 = icmp slt i32 %10, %.077
  br i1 %14, label %15, label %23

15:                                               ; preds = %13
  %16 = sext i32 %10 to i64
  %17 = sub nsw i64 64, %16
  %spec.select = tail call i64 @llvm.umin.i64(i64 %17, i64 %1)
  %18 = getelementptr inbounds nuw i8, ptr %.248.val, i64 473
  %19 = getelementptr inbounds i8, ptr %18, i64 %16
  tail call void @llvm.memcpy.p0.p0.i64(ptr nonnull align 1 %19, ptr align 1 %0, i64 %spec.select, i1 false)
  %20 = trunc i64 %spec.select to i32
  %21 = load i32, ptr %9, align 4, !tbaa !244
  %22 = add nsw i32 %21, %20
  store i32 %22, ptr %9, align 4, !tbaa !244
  %.not90 = icmp slt i32 %22, %.077
  br i1 %.not90, label %.loopexit, label %23

23:                                               ; preds = %15, %13
  %24 = getelementptr inbounds nuw i8, ptr %.248.val, i64 473
  br label %25

25:                                               ; preds = %2, %23
  %.078 = phi ptr [ %24, %23 ], [ %0, %2 ]
  %26 = load i8, ptr %8, align 8
  %27 = and i8 %26, -2
  store i8 %27, ptr %8, align 8
  %bcmp = tail call i32 @bcmp(ptr noundef nonnull dereferenceable(8) %.078, ptr noundef nonnull dereferenceable(8) @zisofs_magic, i64 8)
  %.not91 = icmp eq i32 %bcmp, 0
  br i1 %.not91, label %28, label %.loopexit

28:                                               ; preds = %25
  %29 = getelementptr inbounds nuw i8, ptr %.078, i64 8
  %30 = load i32, ptr %29, align 1
  %31 = getelementptr inbounds nuw i8, ptr %.078, i64 12
  %32 = load i8, ptr %31, align 1, !tbaa !68
  %33 = getelementptr inbounds nuw i8, ptr %.078, i64 13
  %34 = load i8, ptr %33, align 1, !tbaa !68
  %35 = icmp ult i32 %30, 24
  %36 = icmp ne i8 %32, 4
  %or.cond = select i1 %35, i1 true, i1 %36
  %37 = add i8 %34, -31
  %38 = icmp ult i8 %37, -24
  %or.cond8 = select i1 %or.cond, i1 true, i1 %38
  br i1 %or.cond8, label %.loopexit, label %39

39:                                               ; preds = %28
  %40 = zext i32 %30 to i64
  %41 = zext nneg i8 %34 to i64
  %42 = add nsw i64 %40, -1
  %43 = lshr i64 %42, %41
  %44 = add nuw nsw i64 %43, 1
  %45 = shl nuw nsw i64 %44, 2
  %46 = add nuw nsw i64 %45, 20
  %47 = icmp slt i64 %7, %46
  br i1 %47, label %.loopexit, label %48

48:                                               ; preds = %39
  %49 = getelementptr inbounds i8, ptr %.078, i64 %12
  %50 = icmp sgt i64 %12, 23
  br i1 %50, label %.lr.ph.preheader, label %._crit_edge

.lr.ph.preheader:                                 ; preds = %48
  %51 = getelementptr inbounds nuw i8, ptr %.078, i64 16
  %.pre = load i32, ptr %51, align 1
  br label %.lr.ph

.lr.ph:                                           ; preds = %.lr.ph.preheader, %60
  %52 = phi i32 [ %56, %60 ], [ %.pre, %.lr.ph.preheader ]
  %.0764 = phi ptr [ %55, %60 ], [ %51, %.lr.ph.preheader ]
  %.0793 = phi i64 [ %64, %60 ], [ %44, %.lr.ph.preheader ]
  %.0802 = phi i64 [ %63, %60 ], [ %46, %.lr.ph.preheader ]
  %53 = zext i32 %52 to i64
  %.not92 = icmp eq i64 %.0802, %53
  br i1 %.not92, label %54, label %.loopexit

54:                                               ; preds = %.lr.ph
  %55 = getelementptr inbounds nuw i8, ptr %.0764, i64 4
  %56 = load i32, ptr %55, align 1
  %57 = icmp ult i32 %56, %52
  %58 = zext i32 %56 to i64
  %59 = icmp samesign ult i64 %7, %58
  %or.cond95 = select i1 %57, i1 true, i1 %59
  br i1 %or.cond95, label %.loopexit, label %60

60:                                               ; preds = %54
  %61 = sub nuw i32 %56, %52
  %62 = zext i32 %61 to i64
  %63 = add nuw nsw i64 %.0802, %62
  %64 = add nsw i64 %.0793, -1
  %65 = icmp ne i64 %64, 0
  %66 = getelementptr inbounds nuw i8, ptr %.0764, i64 12
  %67 = icmp ule ptr %66, %49
  %68 = select i1 %65, i1 %67, i1 false
  br i1 %68, label %.lr.ph, label %._crit_edge, !llvm.loop !256

._crit_edge:                                      ; preds = %60, %48
  %69 = getelementptr inbounds nuw i8, ptr %4, i64 192
  %70 = getelementptr inbounds nuw i8, ptr %4, i64 196
  store i32 %30, ptr %70, align 4, !tbaa !115
  store i8 4, ptr %69, align 8, !tbaa !116
  %71 = getelementptr inbounds nuw i8, ptr %4, i64 193
  store i8 %34, ptr %71, align 1, !tbaa !117
  %72 = load i8, ptr %8, align 8
  %73 = and i8 %72, -3
  store i8 %73, ptr %8, align 8
  br label %.loopexit

.loopexit:                                        ; preds = %54, %.lr.ph, %39, %28, %25, %15, %._crit_edge
  ret void
}